target datalayout = "e-m:e-p270:32:32-p271:32:32-p272:64:64-i64:64-i128:128-f80:128-n8:16:32:64-S128"
target triple = "x86_64-pc-linux-gnu"

%class.MemRegion = type { ptr, i64 }
%class.SerialHeap = type { %class.CollectedHeap, ptr, ptr, ptr, ptr, ptr, ptr, ptr, ptr, ptr, ptr, ptr }
%class.CollectedHeap = type { ptr, ptr, i64, i64, %class.SoftRefPolicy, %class.MemRegion, i8, i64, i32, i32, i32, i32, ptr, ptr }
%class.SoftRefPolicy = type { i8, i8 }

@_ZN8GCLocker9_needs_gcE = external global i8, align 1
@_ZN8GCLocker15_jni_lock_countE = external global i32, align 4

; Function Attrs: mustprogress nounwind uwtable
define linkonce_odr hidden void @_ZN8GCLocker21verify_critical_countEv() #1 comdat align 2 {
  ret void
}

; Function Attrs: mustprogress nounwind uwtable
define linkonce_odr hidden noundef zeroext i1 @_ZN8GCLocker18is_active_internalEv() #1 comdat align 2 {
  call void @_ZN8GCLocker21verify_critical_countEv()
  %1 = load volatile i32, ptr @_ZN8GCLocker15_jni_lock_countE, align 4
  %2 = icmp sgt i32 %1, 0
  ret i1 %2
}

; Function Attrs: mustprogress nounwind uwtable
define linkonce_odr hidden noundef zeroext i1 @_ZN8GCLocker8needs_gcEv() #1 comdat align 2 {
  %1 = load volatile i8, ptr @_ZN8GCLocker9_needs_gcE, align 1
  %2 = trunc i8 %1 to i1
  ret i1 %2
}

; Function Attrs: mustprogress nounwind uwtable
define linkonce_odr hidden noundef zeroext i1 @_ZN8GCLocker22is_active_and_needs_gcEv() #1 comdat align 2 {
  %1 = call noundef zeroext i1 @_ZN8GCLocker8needs_gcEv()
  br i1 %1, label %2, label %4

2:                                                ; preds = %0
  %3 = call noundef zeroext i1 @_ZN8GCLocker18is_active_internalEv()
  br label %4

4:                                                ; preds = %2, %0
  %5 = phi i1 [ false, %0 ], [ %3, %2 ]
  ret i1 %5
}

; Function Attrs: mustprogress nounwind uwtable
define linkonce_odr hidden noundef i64 @_Z14heap_word_sizem(i64 noundef %0) #1 comdat {
  %2 = alloca i64, align 8
  store i64 %0, ptr %2, align 8
  %3 = load i64, ptr %2, align 8
  %4 = add i64 %3, 7
  %5 = lshr i64 %4, 3
  ret i64 %5
}

; Function Attrs: mustprogress nounwind uwtable
define hidden noundef zeroext i1 @_ZNK10SerialHeap38should_try_older_generation_allocationEm(ptr noundef nonnull align 8 dereferenceable(192) %0, i64 noundef %1) #1 align 2 {
  %3 = alloca ptr, align 8
  %4 = alloca i64, align 8
  %5 = alloca i64, align 8
  store ptr %0, ptr %3, align 8
  store i64 %1, ptr %4, align 8
  %6 = load ptr, ptr %3, align 8
  %7 = getelementptr inbounds %class.SerialHeap, ptr %6, i32 0, i32 1
  %8 = load ptr, ptr %7, align 8
  %9 = call noundef i64 @_ZNK16DefNewGeneration18capacity_before_gcEv(ptr noundef nonnull align 8 dereferenceable(744) %8)
  store i64 %9, ptr %5, align 8
  %10 = load i64, ptr %4, align 8
  %11 = load i64, ptr %5, align 8
  %12 = call noundef i64 @_Z14heap_word_sizem(i64 noundef %11)
  %13 = icmp ugt i64 %10, %12
  br i1 %13, label %16, label %14

14:                                               ; preds = %2
  %15 = call noundef zeroext i1 @_ZN8GCLocker22is_active_and_needs_gcEv()
  br label %16

16:                                               ; preds = %14, %2
  %17 = phi i1 [ true, %2 ], [ %15, %14 ]
  ret i1 %17
}