; Function Attrs: mustprogress nounwind uwtable
define hidden noundef zeroext i1 @_ZNK10SerialHeap38should_try_older_generation_allocationEm(ptr nocapture noundef nonnull readonly align 8 dereferenceable(192) %0, i64 noundef %1) local_unnamed_addr #0 align 2 {
  %3 = getelementptr inbounds i8, ptr %0, i64 104
  %4 = load ptr, ptr %3, align 8
  %5 = tail call noundef i64 @_ZNK16DefNewGeneration18capacity_before_gcEv(ptr noundef nonnull align 8 dereferenceable(744) %4) #16
  %6 = add i64 %5, 7
  %7 = lshr i64 %6, 3
  %8 = icmp ult i64 %7, %1
  br i1 %8, label %_ZN8GCLocker22is_active_and_needs_gcEv.exit, label %9

9:                                                ; preds = %2
  %10 = load volatile i8, ptr @_ZN8GCLocker9_needs_gcE, align 1
  %11 = trunc i8 %10 to i1
  br i1 %11, label %12, label %_ZN8GCLocker22is_active_and_needs_gcEv.exit

12:                                               ; preds = %9
  %13 = load volatile i32, ptr @_ZN8GCLocker15_jni_lock_countE, align 4
  %14 = icmp sgt i32 %13, 0
  br label %_ZN8GCLocker22is_active_and_needs_gcEv.exit

_ZN8GCLocker22is_active_and_needs_gcEv.exit:      ; preds = %12, %9, %2
  %15 = phi i1 [ true, %2 ], [ false, %9 ], [ %14, %12 ]
  ret i1 %15
}